target datalayout = "e-m:e-p270:32:32-p271:32:32-p272:64:64-i64:64-i128:128-f80:128-n8:16:32:64-S128"
target triple = "x86_64-pc-linux-gnu"

%"class.gmx::Bias" = type <{ %"class.std::vector", %"class.gmx::BiasGrid", %"class.gmx::BiasParams", %"class.gmx::BiasState", %"class.std::vector.25", i8, [7 x i8], %"class.std::vector.15", %"class.std::unique_ptr", %"class.std::unique_ptr.32", %"class.std::vector.40", %"class.std::vector.15", i32, [4 x i8] }>
%"class.std::vector" = type { %"struct.std::_Vector_base" }
%"struct.std::_Vector_base" = type { %"struct.std::_Vector_base<gmx::DimParams, std::allocator<gmx::DimParams>>::_Vector_impl" }
%"struct.std::_Vector_base<gmx::DimParams, std::allocator<gmx::DimParams>>::_Vector_impl" = type { %"struct.std::_Vector_base<gmx::DimParams, std::allocator<gmx::DimParams>>::_Vector_impl_data" }
%"struct.std::_Vector_base<gmx::DimParams, std::allocator<gmx::DimParams>>::_Vector_impl_data" = type { ptr, ptr, ptr }
%"class.gmx::BiasGrid" = type { %"class.std::vector.0", %"class.std::vector.5" }
%"class.std::vector.0" = type { %"struct.std::_Vector_base.1" }
%"struct.std::_Vector_base.1" = type { %"struct.std::_Vector_base<gmx::GridPoint, std::allocator<gmx::GridPoint>>::_Vector_impl" }
%"struct.std::_Vector_base<gmx::GridPoint, std::allocator<gmx::GridPoint>>::_Vector_impl" = type { %"struct.std::_Vector_base<gmx::GridPoint, std::allocator<gmx::GridPoint>>::_Vector_impl_data" }
%"struct.std::_Vector_base<gmx::GridPoint, std::allocator<gmx::GridPoint>>::_Vector_impl_data" = type { ptr, ptr, ptr }
%"class.std::vector.5" = type { %"struct.std::_Vector_base.6" }
%"struct.std::_Vector_base.6" = type { %"struct.std::_Vector_base<gmx::GridAxis, std::allocator<gmx::GridAxis>>::_Vector_impl" }
%"struct.std::_Vector_base<gmx::GridAxis, std::allocator<gmx::GridAxis>>::_Vector_impl" = type { %"struct.std::_Vector_base<gmx::GridAxis, std::allocator<gmx::GridAxis>>::_Vector_impl_data" }
%"struct.std::_Vector_base<gmx::GridAxis, std::allocator<gmx::GridAxis>>::_Vector_impl_data" = type { ptr, ptr, ptr }
%"class.gmx::BiasParams" = type <{ double, i64, i32, [4 x i8], i64, i64, i32, i8, [3 x i8], double, double, double, i8, [3 x i8], i32, double, double, double, double, [4 x i32], i8, [3 x i8], i32, i8, [7 x i8] }>
%"class.gmx::BiasState" = type { %"class.gmx::CoordState", %"class.std::vector.10", %"class.std::vector.15", %"class.gmx::HistogramSize", [4 x i32], [4 x i32], ptr, %"class.std::vector.20" }
%"class.gmx::CoordState" = type { [4 x double], i32, i32 }
%"class.std::vector.10" = type { %"struct.std::_Vector_base.11" }
%"struct.std::_Vector_base.11" = type { %"struct.std::_Vector_base<gmx::PointState, std::allocator<gmx::PointState>>::_Vector_impl" }
%"struct.std::_Vector_base<gmx::PointState, std::allocator<gmx::PointState>>::_Vector_impl" = type { %"struct.std::_Vector_base<gmx::PointState, std::allocator<gmx::PointState>>::_Vector_impl_data" }
%"struct.std::_Vector_base<gmx::PointState, std::allocator<gmx::PointState>>::_Vector_impl_data" = type { ptr, ptr, ptr }
%"class.gmx::HistogramSize" = type <{ i64, double, i8, [7 x i8], double, i8, [7 x i8], double, double, i8, [7 x i8] }>
%"class.std::vector.20" = type { %"struct.std::_Vector_base.21" }
%"struct.std::_Vector_base.21" = type { %"struct.std::_Vector_base<std::vector<double>, std::allocator<std::vector<double>>>::_Vector_impl" }
%"struct.std::_Vector_base<std::vector<double>, std::allocator<std::vector<double>>>::_Vector_impl" = type { %"struct.std::_Vector_base<std::vector<double>, std::allocator<std::vector<double>>>::_Vector_impl_data" }
%"struct.std::_Vector_base<std::vector<double>, std::allocator<std::vector<double>>>::_Vector_impl_data" = type { ptr, ptr, ptr }
%"class.std::vector.25" = type { %"struct.std::_Vector_base.26" }
%"struct.std::_Vector_base.26" = type { %"struct.std::_Vector_base<int, std::allocator<int>>::_Vector_impl" }
%"struct.std::_Vector_base<int, std::allocator<int>>::_Vector_impl" = type { %"struct.std::_Vector_base<int, std::allocator<int>>::_Vector_impl_data" }
%"struct.std::_Vector_base<int, std::allocator<int>>::_Vector_impl_data" = type { ptr, ptr, ptr }
%"class.std::unique_ptr" = type { %"struct.std::__uniq_ptr_data" }
%"struct.std::__uniq_ptr_data" = type { %"class.std::__uniq_ptr_impl" }
%"class.std::__uniq_ptr_impl" = type { %"class.std::tuple" }
%"class.std::tuple" = type { %"struct.std::_Tuple_impl" }
%"struct.std::_Tuple_impl" = type { %"struct.std::_Head_base.31" }
%"struct.std::_Head_base.31" = type { ptr }
%"class.std::unique_ptr.32" = type { %"struct.std::__uniq_ptr_data.33" }
%"struct.std::__uniq_ptr_data.33" = type { %"class.std::__uniq_ptr_impl.34" }
%"class.std::__uniq_ptr_impl.34" = type { %"class.std::tuple.35" }
%"class.std::tuple.35" = type { %"struct.std::_Tuple_impl.36" }
%"struct.std::_Tuple_impl.36" = type { %"struct.std::_Head_base.39" }
%"struct.std::_Head_base.39" = type { ptr }
%"class.std::vector.40" = type { %"struct.std::_Vector_base.41" }
%"struct.std::_Vector_base.41" = type { %"struct.std::_Vector_base<double, gmx::Allocator<double, gmx::AlignedAllocationPolicy>>::_Vector_impl" }
%"struct.std::_Vector_base<double, gmx::Allocator<double, gmx::AlignedAllocationPolicy>>::_Vector_impl" = type { %"struct.std::_Vector_base<double, gmx::Allocator<double, gmx::AlignedAllocationPolicy>>::_Vector_impl_data" }
%"struct.std::_Vector_base<double, gmx::Allocator<double, gmx::AlignedAllocationPolicy>>::_Vector_impl_data" = type { ptr, ptr, ptr }
%"class.std::vector.15" = type { %"struct.std::_Vector_base.16" }
%"struct.std::_Vector_base.16" = type { %"struct.std::_Vector_base<double, std::allocator<double>>::_Vector_impl" }
%"struct.std::_Vector_base<double, std::allocator<double>>::_Vector_impl" = type { %"struct.std::_Vector_base<double, std::allocator<double>>::_Vector_impl_data" }
%"struct.std::_Vector_base<double, std::allocator<double>>::_Vector_impl_data" = type { ptr, ptr, ptr }
%class.anon.157 = type { i8 }

@.str.2 = private unnamed_addr constant [133 x i8] c"generated/home/dtcxzyw/WorkSpace/Projects/compilers/llvm-opt-benchmark/bench/gromacs/gromacs/src/gromacs/applied_forces/awh/bias.cpp\00", align 1
@.str.25 = private unnamed_addr constant [19 x i8] c"writer_ != nullptr\00", align 1
@.str.26 = private unnamed_addr constant [52 x i8] c"Should only request data from an initialized writer\00", align 1
@"__PRETTY_FUNCTION__._ZZNK3gmx4Bias22writeToEnergySubblocksEP13t_enxsubblockENK3$_0clEv" = private unnamed_addr constant [95 x i8] c"auto gmx::Bias::writeToEnergySubblocks(t_enxsubblock *)::(anonymous class)::operator()() const\00", align 1

; Function Attrs: mustprogress nounwind uwtable
define linkonce_odr noundef nonnull align 8 dereferenceable(8) ptr @_ZNSt10_Head_baseILm0EPN3gmx10BiasWriterELb0EE7_M_headERKS3_(ptr noundef nonnull align 8 dereferenceable(8) %0) #2 comdat align 2 {
  %2 = alloca ptr, align 8
  store ptr %0, ptr %2, align 8
  %3 = load ptr, ptr %2, align 8
  %4 = getelementptr inbounds %"struct.std::_Head_base.39", ptr %3, i32 0, i32 0
  ret ptr %4
}

; Function Attrs: mustprogress nounwind uwtable
define linkonce_odr noundef nonnull align 8 dereferenceable(8) ptr @_ZNSt11_Tuple_implILm0EJPN3gmx10BiasWriterESt14default_deleteIS1_EEE7_M_headERKS5_(ptr noundef nonnull align 8 dereferenceable(8) %0) #2 comdat align 2 {
  %2 = alloca ptr, align 8
  store ptr %0, ptr %2, align 8
  %3 = load ptr, ptr %2, align 8
  %4 = call noundef nonnull align 8 dereferenceable(8) ptr @_ZNSt10_Head_baseILm0EPN3gmx10BiasWriterELb0EE7_M_headERKS3_(ptr noundef nonnull align 8 dereferenceable(8) %3) #12
  ret ptr %4
}

; Function Attrs: mustprogress nounwind uwtable
define linkonce_odr noundef nonnull align 8 dereferenceable(8) ptr @_ZSt12__get_helperILm0EPN3gmx10BiasWriterEJSt14default_deleteIS1_EEERKT0_RKSt11_Tuple_implIXT_EJS5_DpT1_EE(ptr noundef nonnull align 8 dereferenceable(8) %0) #2 comdat {
  %2 = alloca ptr, align 8
  store ptr %0, ptr %2, align 8
  %3 = load ptr, ptr %2, align 8
  %4 = call noundef nonnull align 8 dereferenceable(8) ptr @_ZNSt11_Tuple_implILm0EJPN3gmx10BiasWriterESt14default_deleteIS1_EEE7_M_headERKS5_(ptr noundef nonnull align 8 dereferenceable(8) %3) #12
  ret ptr %4
}

; Function Attrs: mustprogress nounwind uwtable
define linkonce_odr noundef nonnull align 8 dereferenceable(8) ptr @_ZSt3getILm0EJPN3gmx10BiasWriterESt14default_deleteIS1_EEERKNSt13tuple_elementIXT_ESt5tupleIJDpT0_EEE4typeERKS9_(ptr noundef nonnull align 8 dereferenceable(8) %0) #2 comdat {
  %2 = alloca ptr, align 8
  store ptr %0, ptr %2, align 8
  %3 = load ptr, ptr %2, align 8
  %4 = call noundef nonnull align 8 dereferenceable(8) ptr @_ZSt12__get_helperILm0EPN3gmx10BiasWriterEJSt14default_deleteIS1_EEERKT0_RKSt11_Tuple_implIXT_EJS5_DpT1_EE(ptr noundef nonnull align 8 dereferenceable(8) %3) #12
  ret ptr %4
}

; Function Attrs: mustprogress nounwind uwtable
define linkonce_odr noundef ptr @_ZNKSt15__uniq_ptr_implIN3gmx10BiasWriterESt14default_deleteIS1_EE6_M_ptrEv(ptr noundef nonnull align 8 dereferenceable(8) %0) #2 comdat align 2 {
  %2 = alloca ptr, align 8
  store ptr %0, ptr %2, align 8
  %3 = load ptr, ptr %2, align 8
  %4 = getelementptr inbounds %"class.std::__uniq_ptr_impl.34", ptr %3, i32 0, i32 0
  %5 = call noundef nonnull align 8 dereferenceable(8) ptr @_ZSt3getILm0EJPN3gmx10BiasWriterESt14default_deleteIS1_EEERKNSt13tuple_elementIXT_ESt5tupleIJDpT0_EEE4typeERKS9_(ptr noundef nonnull align 8 dereferenceable(8) %4) #12
  %6 = load ptr, ptr %5, align 8
  ret ptr %6
}

; Function Attrs: mustprogress nounwind uwtable
define linkonce_odr noundef ptr @_ZNKSt10unique_ptrIN3gmx10BiasWriterESt14default_deleteIS1_EE3getEv(ptr noundef nonnull align 8 dereferenceable(8) %0) #2 comdat align 2 {
  %2 = alloca ptr, align 8
  store ptr %0, ptr %2, align 8
  %3 = load ptr, ptr %2, align 8
  %4 = getelementptr inbounds %"class.std::unique_ptr.32", ptr %3, i32 0, i32 0
  %5 = call noundef ptr @_ZNKSt15__uniq_ptr_implIN3gmx10BiasWriterESt14default_deleteIS1_EE6_M_ptrEv(ptr noundef nonnull align 8 dereferenceable(8) %4) #12
  ret ptr %5
}

; Function Attrs: mustprogress nounwind uwtable
define linkonce_odr noundef zeroext i1 @_ZNKSt10unique_ptrIN3gmx10BiasWriterESt14default_deleteIS1_EEcvbEv(ptr noundef nonnull align 8 dereferenceable(8) %0) #2 comdat align 2 {
  %2 = alloca ptr, align 8
  store ptr %0, ptr %2, align 8
  %3 = load ptr, ptr %2, align 8
  %4 = call noundef ptr @_ZNKSt10unique_ptrIN3gmx10BiasWriterESt14default_deleteIS1_EE3getEv(ptr noundef nonnull align 8 dereferenceable(8) %3) #12
  %5 = icmp eq ptr %4, null
  %6 = select i1 %5, i1 false, i1 true
  ret i1 %6
}

; Function Attrs: mustprogress nounwind uwtable
define linkonce_odr noundef ptr @_ZNKSt10unique_ptrIN3gmx10BiasWriterESt14default_deleteIS1_EEptEv(ptr noundef nonnull align 8 dereferenceable(8) %0) #2 comdat align 2 {
  %2 = alloca ptr, align 8
  store ptr %0, ptr %2, align 8
  %3 = load ptr, ptr %2, align 8
  %4 = call noundef ptr @_ZNKSt10unique_ptrIN3gmx10BiasWriterESt14default_deleteIS1_EE3getEv(ptr noundef nonnull align 8 dereferenceable(8) %3) #12
  ret ptr %4
}

; Function Attrs: mustprogress uwtable
define internal void @"_ZZNK3gmx4Bias22writeToEnergySubblocksEP13t_enxsubblockENK3$_0clEv"(ptr noundef nonnull align 1 dereferenceable(1) %0) #0 align 2 {
  %2 = alloca ptr, align 8
  store ptr %0, ptr %2, align 8
  call void @_ZN3gmx8internal13assertHandlerEPKcS2_S2_S2_i(ptr noundef @.str.25, ptr noundef @.str.26, ptr noundef @"__PRETTY_FUNCTION__._ZZNK3gmx4Bias22writeToEnergySubblocksEP13t_enxsubblockENK3$_0clEv", ptr noundef @.str.2, i32 noundef 480) #13
  unreachable
}

; Function Attrs: mustprogress nounwind uwtable
define linkonce_odr noundef zeroext i1 @_ZStneIN3gmx10BiasWriterESt14default_deleteIS1_EEbRKSt10unique_ptrIT_T0_EDn(ptr noundef nonnull align 8 dereferenceable(8) %0, ptr %1) #2 comdat {
  %3 = alloca ptr, align 8
  %4 = alloca ptr, align 8
  store ptr %0, ptr %3, align 8
  store ptr %1, ptr %4, align 8
  %5 = load ptr, ptr %3, align 8
  %6 = call noundef zeroext i1 @_ZNKSt10unique_ptrIN3gmx10BiasWriterESt14default_deleteIS1_EEcvbEv(ptr noundef nonnull align 8 dereferenceable(8) %5) #12
  ret i1 %6
}

; Function Attrs: mustprogress uwtable
define noundef i32 @_ZNK3gmx4Bias22writeToEnergySubblocksEP13t_enxsubblock(ptr noundef nonnull align 8 dereferenceable(556) %0, ptr noundef %1) #0 align 2 {
  %3 = alloca ptr, align 8
  %4 = alloca ptr, align 8
  %5 = alloca %class.anon.157, align 1
  store ptr %0, ptr %3, align 8
  store ptr %1, ptr %4, align 8
  %6 = load ptr, ptr %3, align 8
  %7 = getelementptr inbounds %"class.gmx::Bias", ptr %6, i32 0, i32 9
  %8 = call noundef zeroext i1 @_ZStneIN3gmx10BiasWriterESt14default_deleteIS1_EEbRKSt10unique_ptrIT_T0_EDn(ptr noundef nonnull align 8 dereferenceable(8) %7, ptr null) #12
  br i1 %8, label %9, label %10

9:                                                ; preds = %2
  br label %11

10:                                               ; preds = %2
  call void @"_ZZNK3gmx4Bias22writeToEnergySubblocksEP13t_enxsubblockENK3$_0clEv"(ptr noundef nonnull align 1 dereferenceable(1) %5)
  br label %11

11:                                               ; preds = %10, %9
  %12 = getelementptr inbounds %"class.gmx::Bias", ptr %6, i32 0, i32 9
  %13 = call noundef ptr @_ZNKSt10unique_ptrIN3gmx10BiasWriterESt14default_deleteIS1_EEptEv(ptr noundef nonnull align 8 dereferenceable(8) %12) #12
  %14 = load ptr, ptr %4, align 8
  %15 = call noundef i32 @_ZN3gmx10BiasWriter22writeToEnergySubblocksERKNS_4BiasEP13t_enxsubblock(ptr noundef nonnull align 8 dereferenceable(72) %13, ptr noundef nonnull align 8 dereferenceable(556) %6, ptr noundef %14)
  ret i32 %15
}