; Function Attrs: mustprogress uwtable
define noundef i32 @_ZNK3gmx4Bias22writeToEnergySubblocksEP13t_enxsubblock(ptr noundef nonnull align 8 dereferenceable(556) %0, ptr noundef %1) local_unnamed_addr #0 align 2 {
  %3 = getelementptr inbounds i8, ptr %0, i64 496
  %4 = load ptr, ptr %3, align 8
  %.not = icmp eq ptr %4, null
  br i1 %.not, label %5, label %6

5:                                                ; preds = %2
  tail call void @_ZN3gmx8internal13assertHandlerEPKcS2_S2_S2_i(ptr noundef nonnull @.str.25, ptr noundef nonnull @.str.26, ptr noundef nonnull @"__PRETTY_FUNCTION__._ZZNK3gmx4Bias22writeToEnergySubblocksEP13t_enxsubblockENK3$_0clEv", ptr noundef nonnull @.str.2, i32 noundef 480) #16
  unreachable

6:                                                ; preds = %2
  %7 = tail call noundef i32 @_ZN3gmx10BiasWriter22writeToEnergySubblocksERKNS_4BiasEP13t_enxsubblock(ptr noundef nonnull align 8 dereferenceable(72) %4, ptr noundef nonnull align 8 dereferenceable(556) %0, ptr noundef %1)
  ret i32 %7
}